target datalayout = "e-m:e-p270:32:32-p271:32:32-p272:64:64-i64:64-i128:128-f80:128-n8:16:32:64-S128"
target triple = "x86_64-pc-linux-gnu"

@.str = private unnamed_addr constant [98 x i8] c"generated/home/dtcxzyw/WorkSpace/Projects/compilers/llvm-opt-benchmark/bench/hdf5/hdf5/src/H5VM.c\00", align 1
@__func__.H5VM_array_calc = private unnamed_addr constant [16 x i8] c"H5VM_array_calc\00", align 1
@H5E_INTERNAL_g = external global i64, align 8
@H5E_BADVALUE_g = external global i64, align 8
@.str.1 = private unnamed_addr constant [26 x i8] c"can't compute coordinates\00", align 1

; Function Attrs: nounwind uwtable
define i32 @H5VM_array_calc_pre(i64 noundef %0, i32 noundef %1, ptr noundef %2, ptr noundef %3) #0 {
  %5 = alloca i64, align 8
  %6 = alloca i32, align 4
  %7 = alloca ptr, align 8
  %8 = alloca ptr, align 8
  %9 = alloca i32, align 4
  store i64 %0, ptr %5, align 8
  store i32 %1, ptr %6, align 4
  store ptr %2, ptr %7, align 8
  store ptr %3, ptr %8, align 8
  store i32 0, ptr %9, align 4
  br label %10

10:                                               ; preds = %33, %4
  %11 = load i32, ptr %9, align 4
  %12 = load i32, ptr %6, align 4
  %13 = icmp ult i32 %11, %12
  br i1 %13, label %14, label %36

14:                                               ; preds = %10
  %15 = load i64, ptr %5, align 8
  %16 = load ptr, ptr %7, align 8
  %17 = load i32, ptr %9, align 4
  %18 = zext i32 %17 to i64
  %19 = getelementptr inbounds i64, ptr %16, i64 %18
  %20 = load i64, ptr %19, align 8
  %21 = udiv i64 %15, %20
  %22 = load ptr, ptr %8, align 8
  %23 = load i32, ptr %9, align 4
  %24 = zext i32 %23 to i64
  %25 = getelementptr inbounds i64, ptr %22, i64 %24
  store i64 %21, ptr %25, align 8
  %26 = load ptr, ptr %7, align 8
  %27 = load i32, ptr %9, align 4
  %28 = zext i32 %27 to i64
  %29 = getelementptr inbounds i64, ptr %26, i64 %28
  %30 = load i64, ptr %29, align 8
  %31 = load i64, ptr %5, align 8
  %32 = urem i64 %31, %30
  store i64 %32, ptr %5, align 8
  br label %33

33:                                               ; preds = %14
  %34 = load i32, ptr %9, align 4
  %35 = add i32 %34, 1
  store i32 %35, ptr %9, align 4
  br label %10

36:                                               ; preds = %10
  ret i32 0
}

; Function Attrs: nounwind uwtable
define void @H5VM_array_down(i32 noundef %0, ptr noundef %1, ptr noundef %2) #0 {
  %4 = alloca i32, align 4
  %5 = alloca ptr, align 8
  %6 = alloca ptr, align 8
  %7 = alloca i64, align 8
  %8 = alloca i32, align 4
  store i32 %0, ptr %4, align 4
  store ptr %1, ptr %5, align 8
  store ptr %2, ptr %6, align 8
  %9 = load i32, ptr %4, align 4
  %10 = sub i32 %9, 1
  store i32 %10, ptr %8, align 4
  store i64 1, ptr %7, align 8
  br label %11

11:                                               ; preds = %27, %3
  %12 = load i32, ptr %8, align 4
  %13 = icmp sge i32 %12, 0
  br i1 %13, label %14, label %30

14:                                               ; preds = %11
  %15 = load i64, ptr %7, align 8
  %16 = load ptr, ptr %6, align 8
  %17 = load i32, ptr %8, align 4
  %18 = sext i32 %17 to i64
  %19 = getelementptr inbounds i64, ptr %16, i64 %18
  store i64 %15, ptr %19, align 8
  %20 = load ptr, ptr %5, align 8
  %21 = load i32, ptr %8, align 4
  %22 = sext i32 %21 to i64
  %23 = getelementptr inbounds i64, ptr %20, i64 %22
  %24 = load i64, ptr %23, align 8
  %25 = load i64, ptr %7, align 8
  %26 = mul i64 %25, %24
  store i64 %26, ptr %7, align 8
  br label %27

27:                                               ; preds = %14
  %28 = load i32, ptr %8, align 4
  %29 = add nsw i32 %28, -1
  store i32 %29, ptr %8, align 4
  br label %11

30:                                               ; preds = %11
  ret void
}

; Function Attrs: nounwind uwtable
define i32 @H5VM_array_calc(i64 noundef %0, i32 noundef %1, ptr noundef %2, ptr noundef %3) #0 {
  %5 = alloca i64, align 8
  %6 = alloca i32, align 4
  %7 = alloca ptr, align 8
  %8 = alloca ptr, align 8
  %9 = alloca [33 x i64], align 16
  %10 = alloca i32, align 4
  %11 = alloca i8, align 1
  store i64 %0, ptr %5, align 8
  store i32 %1, ptr %6, align 4
  store ptr %2, ptr %7, align 8
  store ptr %3, ptr %8, align 8
  store i32 0, ptr %10, align 4
  store i8 0, ptr %11, align 1
  %12 = load i32, ptr %6, align 4
  %13 = load ptr, ptr %7, align 8
  %14 = getelementptr inbounds [33 x i64], ptr %9, i64 0, i64 0
  call void @H5VM_array_down(i32 noundef %12, ptr noundef %13, ptr noundef %14)
  %15 = load i64, ptr %5, align 8
  %16 = load i32, ptr %6, align 4
  %17 = getelementptr inbounds [33 x i64], ptr %9, i64 0, i64 0
  %18 = load ptr, ptr %8, align 8
  %19 = call i32 @H5VM_array_calc_pre(i64 noundef %15, i32 noundef %16, ptr noundef %17, ptr noundef %18)
  %20 = icmp slt i32 %19, 0
  br i1 %20, label %21, label %36

21:                                               ; preds = %4
  br label %22

22:                                               ; preds = %21
  br label %23

23:                                               ; preds = %22
  br label %24

24:                                               ; preds = %23
  %25 = load i64, ptr @H5E_INTERNAL_g, align 8
  %26 = load i64, ptr @H5E_BADVALUE_g, align 8
  %27 = call i32 (ptr, ptr, i32, i64, i64, ptr, ...) @H5E_printf_stack(ptr noundef @.str, ptr noundef @__func__.H5VM_array_calc, i32 noundef 947, i64 noundef %25, i64 noundef %26, ptr noundef @.str.1)
  br label %28

28:                                               ; preds = %24
  store i8 1, ptr %11, align 1
  %29 = load i8, ptr %11, align 1
  %30 = trunc i8 %29 to i1
  %31 = zext i1 %30 to i8
  store i8 %31, ptr %11, align 1
  br label %32

32:                                               ; preds = %28
  br label %33

33:                                               ; preds = %32
  store i32 -1, ptr %10, align 4
  br label %37

34:                                               ; No predecessors!
  br label %35

35:                                               ; preds = %34
  br label %36

36:                                               ; preds = %35, %4
  br label %37

37:                                               ; preds = %36, %33
  %38 = load i32, ptr %10, align 4
  ret i32 %38
}