; Function Attrs: nofree norecurse nosync nounwind memory(argmem: readwrite) uwtable
define noundef i32 @H5VM_array_calc(i64 noundef %0, i32 noundef %1, ptr nocapture noundef readonly %2, ptr nocapture noundef writeonly %3) local_unnamed_addr #5 {
  %5 = alloca [33 x i64], align 16
  %.09.i = add i32 %1, -1
  %6 = icmp sgt i32 %.09.i, -1
  br i1 %6, label %.lr.ph.preheader.i, label %H5VM_array_down.exit

.lr.ph.preheader.i:                               ; preds = %4
  %7 = zext nneg i32 %.09.i to i64
  br label %.lr.ph.i

.lr.ph.i:                                         ; preds = %.lr.ph.i, %.lr.ph.preheader.i
  %indvars.iv.i = phi i64 [ %7, %.lr.ph.preheader.i ], [ %indvars.iv.next.i, %.lr.ph.i ]
  %.0810.i = phi i64 [ 1, %.lr.ph.preheader.i ], [ %11, %.lr.ph.i ]
  %8 = getelementptr inbounds i64, ptr %5, i64 %indvars.iv.i
  store i64 %.0810.i, ptr %8, align 8
  %9 = getelementptr inbounds i64, ptr %2, i64 %indvars.iv.i
  %10 = load i64, ptr %9, align 8
  %11 = mul i64 %10, %.0810.i
  %indvars.iv.next.i = add nsw i64 %indvars.iv.i, -1
  %.not.i = icmp eq i64 %indvars.iv.i, 0
  br i1 %.not.i, label %H5VM_array_down.exit, label %.lr.ph.i

H5VM_array_down.exit:                             ; preds = %.lr.ph.i, %4
  %.not.i6 = icmp eq i32 %1, 0
  br i1 %.not.i6, label %H5VM_array_calc_pre.exit, label %.lr.ph.preheader.i7

.lr.ph.preheader.i7:                              ; preds = %H5VM_array_down.exit
  %wide.trip.count.i = zext i32 %1 to i64
  br label %.lr.ph.i8

.lr.ph.i8:                                        ; preds = %.lr.ph.i8, %.lr.ph.preheader.i7
  %indvars.iv.i9 = phi i64 [ 0, %.lr.ph.preheader.i7 ], [ %indvars.iv.next.i10, %.lr.ph.i8 ]
  %.01011.i = phi i64 [ %0, %.lr.ph.preheader.i7 ], [ %16, %.lr.ph.i8 ]
  %12 = getelementptr inbounds i64, ptr %5, i64 %indvars.iv.i9
  %13 = load i64, ptr %12, align 8
  %14 = udiv i64 %.01011.i, %13
  %15 = getelementptr inbounds i64, ptr %3, i64 %indvars.iv.i9
  store i64 %14, ptr %15, align 8
  %16 = urem i64 %.01011.i, %13
  %indvars.iv.next.i10 = add nuw nsw i64 %indvars.iv.i9, 1
  %exitcond.not.i = icmp eq i64 %indvars.iv.next.i10, %wide.trip.count.i
  br i1 %exitcond.not.i, label %H5VM_array_calc_pre.exit, label %.lr.ph.i8

H5VM_array_calc_pre.exit:                         ; preds = %.lr.ph.i8, %H5VM_array_down.exit
  ret i32 0
}